	.file	"asmdefines.cc"
	.text
.Ltext0:
	.section	.text.unlikely,"ax",@progbits
.LCOLDB0:
	.text
.LHOTB0:
	.p2align 4,,15
	.section	.text.unlikely
.Ltext_cold0:
	.text
	.globl	_Z10asmdefinesv
	.type	_Z10asmdefinesv, @function
_Z10asmdefinesv:
.LFB999:
	.file 1 "kernel/asmdefines.cc"
	.loc 1 14 0
	.cfi_startproc
	pushq	%rbp
	.cfi_def_cfa_offset 16
	.cfi_offset 6, -16
	movq	%rsp, %rbp
	.cfi_def_cfa_register 6
	.loc 1 15 0
#APP
# 15 "kernel/asmdefines.cc" 1
	
#define PROC_KSTACK_OFFSET remove$8 
# 0 "" 2
	.loc 1 16 0
# 16 "kernel/asmdefines.cc" 1
	
#define TF_CS remove$160 
# 0 "" 2
	.loc 1 17 0
# 17 "kernel/asmdefines.cc" 1
	
#define PROC_UACCESS remove$468 
# 0 "" 2
	.loc 1 18 0
# 18 "kernel/asmdefines.cc" 1
	
#define TRAPFRAME_SIZE remove$192 
# 0 "" 2
	.loc 1 19 0
#NO_APP
	popq	%rbp
	.cfi_restore 6
	.cfi_def_cfa 7, 8
	ret
	.cfi_endproc
.LFE999:
	.size	_Z10asmdefinesv, .-_Z10asmdefinesv
	.section	.text.unlikely
.LCOLDE0:
	.text
.LHOTE0:
.Letext0:
	.section	.text.unlikely
.Letext_cold0:
	.file 2 "/usr/lib/gcc/x86_64-linux-gnu/5/include/stddef.h"
	.file 3 "/usr/lib/gcc/x86_64-linux-gnu/5/include/stdint-gcc.h"
	.file 4 "include/types.h"
	.file 5 "include/mmu.h"
	.file 6 "/usr/include/c++/5/bits/atomic_base.h"
	.file 7 "/usr/include/c++/5/atomic"
	.file 8 "/usr/include/c++/5/cstdint"
	.file 9 "/usr/include/c++/5/type_traits"
	.file 10 "/usr/include/c++/5/cstddef"
	.file 11 "/usr/include/x86_64-linux-gnu/c++/5/bits/c++config.h"
	.file 12 "/usr/include/c++/5/bits/exception_ptr.h"
	.file 13 "stdinc/new"
	.file 14 "stdinc/memory"
	.file 15 "include/userptr.hh"
	.file 16 "include/gc.hh"
	.file 17 "include/spinlock.hh"
	.file 18 "libutil/include/amd64.h"
	.file 19 "stdinc/uk/signal.h"
	.file 20 "include/proc.hh"
	.file 21 "libutil/include/ref.hh"
	.file 22 "libutil/include/ilist.hh"
	.file 23 "include/vmalloc.hh"
	.file 24 "include/condvar.hh"
	.file 25 "include/cpu.hh"
	.file 26 "include/spercpu.hh"
	.file 27 "<built-in>"
	.section	.note.GNU-stack,"",@progbits
